; Function Attrs: nounwind uwtable
define internal noundef i32 @RecordingAudioThread(ptr noundef %0) #0 {
  %2 = load ptr, ptr getelementptr inbounds nuw (i8, ptr @current_audio, i64 32), align 8
  tail call void %2(ptr noundef %0) #14
  %3 = getelementptr inbounds nuw i8, ptr %0, i64 48
  br label %4

4:                                                ; preds = %8, %1
  %5 = load ptr, ptr %3, align 8
  %6 = tail call zeroext i1 %5(ptr noundef %0) #14
  br i1 %6, label %8, label %7

7:                                                ; preds = %4
  tail call void @SDL_AudioDeviceDisconnected(ptr noundef nonnull %0)
  br label %8

8:                                                ; preds = %4, %7
  %9 = tail call zeroext i1 @SDL_RecordingAudioThreadIterate(ptr noundef nonnull %0)
  br i1 %9, label %4, label %10, !llvm.loop !34

10:                                               ; preds = %8
  %11 = getelementptr inbounds nuw i8, ptr %0, i64 64
  %12 = load ptr, ptr %11, align 8
  tail call void %12(ptr noundef nonnull %0) #14
  %13 = load ptr, ptr getelementptr inbounds nuw (i8, ptr @current_audio, i64 40), align 8
  tail call void %13(ptr noundef nonnull %0) #14
  ret i32 0
}